librccl.so.1 librccl1 #MINVER#
 (optional)_Z42ncclKernel_SendRecv_RING_SIMPLE_Sum_int8_tP11ncclDevComm@Base 5.3.3
 (optional)_Z47ncclKernelDebug_SendRecv_RING_SIMPLE_Sum_int8_tP11ncclDevComm@Base 5.3.3
 (optional)_Z47ncclKernelLL128_SendRecv_RING_SIMPLE_Sum_int8_tP11ncclDevComm@Base 5.3.3
 (optional)_Z52ncclKernelLL128Debug_SendRecv_RING_SIMPLE_Sum_int8_tP11ncclDevComm@Base 5.3.3
 (optional)_ZNSt10_HashtableINSt7__cxx1112basic_stringIcSt11char_traitsIcESaIcEEES5_SaIS5_ENSt8__detail9_IdentityESt8equal_toIS5_ESt4hashIS5_ENS7_18_Mod_range_hashingENS7_20_Default_ranged_hashENS7_20_Prime_rehash_policyENS7_17_Hashtable_traitsILb1ELb1ELb1EEEE12_Scoped_nodeD2Ev@Base 5.3.3
 (optional)_ZNSt10_HashtableINSt7__cxx1112basic_stringIcSt11char_traitsIcESaIcEEES5_SaIS5_ENSt8__detail9_IdentityESt8equal_toIS5_ESt4hashIS5_ENS7_18_Mod_range_hashingENS7_20_Default_ranged_hashENS7_20_Prime_rehash_policyENS7_17_Hashtable_traitsILb1ELb1ELb1EEEE13_M_rehash_auxEmSt17integral_constantIbLb1EE@Base 5.3.3
 (optional)_ZNSt10_HashtableINSt7__cxx1112basic_stringIcSt11char_traitsIcESaIcEEES5_SaIS5_ENSt8__detail9_IdentityESt8equal_toIS5_ESt4hashIS5_ENS7_18_Mod_range_hashingENS7_20_Default_ranged_hashENS7_20_Prime_rehash_policyENS7_17_Hashtable_traitsILb1ELb1ELb1EEEE16_M_insert_uniqueIRKS5_SL_NS7_10_AllocNodeISaINS7_10_Hash_nodeIS5_Lb1EEEEEEEESt4pairINS7_14_Node_iteratorIS5_Lb1ELb1EEEbEOT_OT0_RKT1_@Base 5.3.3
 (optional)_ZNSt10_HashtableINSt7__cxx1112basic_stringIcSt11char_traitsIcESaIcEEES5_SaIS5_ENSt8__detail9_IdentityESt8equal_toIS5_ESt4hashIS5_ENS7_18_Mod_range_hashingENS7_20_Default_ranged_hashENS7_20_Prime_rehash_policyENS7_17_Hashtable_traitsILb1ELb1ELb1EEEE21_M_insert_unique_nodeEmmPNS7_10_Hash_nodeIS5_Lb1EEEm@Base 5.3.3
 (optional)_ZNSt10_HashtableINSt7__cxx1112basic_stringIcSt11char_traitsIcESaIcEEES5_SaIS5_ENSt8__detail9_IdentityESt8equal_toIS5_ESt4hashIS5_ENS7_18_Mod_range_hashingENS7_20_Default_ranged_hashENS7_20_Prime_rehash_policyENS7_17_Hashtable_traitsILb1ELb1ELb1EEEE4findERKS5_@Base 5.3.3
 (optional)_ZNSt13unordered_setINSt7__cxx1112basic_stringIcSt11char_traitsIcESaIcEEESt4hashIS5_ESt8equal_toIS5_ESaIS5_EED2Ev@Base 5.3.3
 (optional)_ZNSt4pairIiSt13unordered_setINSt7__cxx1112basic_stringIcSt11char_traitsIcESaIcEEESt4hashIS6_ESt8equal_toIS6_ESaIS6_EEED2Ev@Base 5.3.3
 (optional)_ZNSt6thread11_State_implINS_8_InvokerISt5tupleIJPFvvEEEEEE6_M_runEv@Base 5.3.3
 (optional)_ZNSt6thread11_State_implINS_8_InvokerISt5tupleIJPFvvEEEEEED0Ev@Base 5.3.3
 (optional)_ZNSt6threadC2IRFvvEJEvEEOT_DpOT0_@Base 5.3.3
 (optional)_ZNSt6vectorISt4pairIiSt13unordered_setINSt7__cxx1112basic_stringIcSt11char_traitsIcESaIcEEESt4hashIS7_ESt8equal_toIS7_ESaIS7_EEESaISE_EE17_M_realloc_insertIJSE_EEEvN9__gnu_cxx17__normal_iteratorIPSE_SG_EEDpOT_@Base 5.3.3
 (optional)_ZNSt6vectorISt4pairIiSt13unordered_setINSt7__cxx1112basic_stringIcSt11char_traitsIcESaIcEEESt4hashIS7_ESt8equal_toIS7_ESaIS7_EEESaISE_EED2Ev@Base 5.3.3
 (optional)_ZNSt8__detail16_Hashtable_allocISaINS_10_Hash_nodeINSt7__cxx1112basic_stringIcSt11char_traitsIcESaIcEEELb1EEEEE16_M_allocate_nodeIJRKS7_EEEPS8_DpOT_@Base 5.3.3
 (optional)_ZTINSt6thread11_State_implINS_8_InvokerISt5tupleIJPFvvEEEEEEE@Base 5.3.3
 (optional)_ZTSNSt6thread11_State_implINS_8_InvokerISt5tupleIJPFvvEEEEEEE@Base 5.3.3
 (optional)_ZTVNSt6thread11_State_implINS_8_InvokerISt5tupleIJPFvvEEEEEEE@Base 5.3.3
 (optional)__hip_fatbin@Base 5.3.3
 ncclAllGather@Base 5.3.3
 ncclAllReduce@Base 5.3.3
 ncclAllToAll@Base 5.3.3
 ncclAllToAllv@Base 5.3.3
 ncclBcast@Base 5.3.3
 ncclBroadcast@Base 5.3.3
 ncclCommAbort@Base 5.3.3
 ncclCommCount@Base 5.3.3
 ncclCommCuDevice@Base 5.3.3
 ncclCommDestroy@Base 5.3.3
 ncclCommGetAsyncError@Base 5.3.3
 ncclCommInitAll@Base 5.3.3
 ncclCommInitRank@Base 5.3.3
 ncclCommInitRankMulti@Base 5.3.3
 ncclCommUserRank@Base 5.3.3
 ncclGather@Base 5.3.3
 ncclGetErrorString@Base 5.3.3
 ncclGetUniqueId@Base 5.3.3
 ncclGetVersion@Base 5.3.3
 ncclGroupEnd@Base 5.3.3
 ncclGroupStart@Base 5.3.3
 ncclRecv@Base 5.3.3
 ncclRedOpCreatePreMulSum@Base 5.3.3
 ncclRedOpDestroy@Base 5.3.3
 ncclReduce@Base 5.3.3
 ncclReduceScatter@Base 5.3.3
 ncclScatter@Base 5.3.3
 ncclSend@Base 5.3.3
